target datalayout = "e-m:e-p270:32:32-p271:32:32-p272:64:64-i64:64-i128:128-f80:128-n8:16:32:64-S128"
target triple = "x86_64-pc-linux-gnu"

%struct.pmix_object_t = type { %union.pthread_mutex_t, ptr, i32, %struct.pmix_tma }
%union.pthread_mutex_t = type { %struct.__pthread_mutex_s }
%struct.__pthread_mutex_s = type { i32, i32, i32, i32, i32, i16, i16, %struct.__pthread_internal_list }
%struct.__pthread_internal_list = type { ptr, ptr }
%struct.pmix_tma = type { ptr, ptr, ptr, ptr, ptr, ptr, ptr, ptr }
%struct.pmix_list_item_t = type { %struct.pmix_object_t, ptr, ptr, i32 }
%struct.timeval = type { i64, i64 }
%struct.prte_oob_tcp_listener_t = type { %struct.pmix_list_item_t, i8, %struct.event, i8, i32, i16 }
%struct.event = type { %struct.event_callback, %union.anon.0, i32, ptr, %union.anon.2, i16, i16, %struct.timeval }
%struct.event_callback = type { %struct.anon, i16, i8, i8, %union.anon, ptr }
%struct.anon = type { ptr, ptr }
%union.anon = type { ptr }
%union.anon.0 = type { %struct.anon.1 }
%struct.anon.1 = type { ptr, ptr }
%union.anon.2 = type { %struct.anon.3 }
%struct.anon.3 = type { %struct.anon.4, %struct.timeval }
%struct.anon.4 = type { ptr, ptr }

; Function Attrs: nounwind uwtable
define internal void @tcp_ev_des(ptr noundef %0) #0 {
  %2 = alloca ptr, align 8
  store ptr %0, ptr %2, align 8, !tbaa !30
  %3 = load ptr, ptr %2, align 8, !tbaa !30
  %4 = getelementptr inbounds nuw %struct.prte_oob_tcp_listener_t, ptr %3, i32 0, i32 1
  %5 = load i8, ptr %4, align 8, !tbaa !32, !range !59, !noundef !60
  %6 = trunc i8 %5 to i1
  br i1 %6, label %7, label %11

7:                                                ; preds = %1
  %8 = load ptr, ptr %2, align 8, !tbaa !30
  %9 = getelementptr inbounds nuw %struct.prte_oob_tcp_listener_t, ptr %8, i32 0, i32 2
  %10 = call i32 @event_del(ptr noundef %9)
  br label %11

11:                                               ; preds = %7, %1
  %12 = load ptr, ptr %2, align 8, !tbaa !30
  %13 = getelementptr inbounds nuw %struct.prte_oob_tcp_listener_t, ptr %12, i32 0, i32 1
  store i8 0, ptr %13, align 8, !tbaa !32
  %14 = load ptr, ptr %2, align 8, !tbaa !30
  %15 = getelementptr inbounds nuw %struct.prte_oob_tcp_listener_t, ptr %14, i32 0, i32 4
  %16 = load i32, ptr %15, align 4, !tbaa !41
  %17 = icmp sle i32 0, %16
  br i1 %17, label %18, label %31

18:                                               ; preds = %11
  br label %19

19:                                               ; preds = %18
  %20 = load ptr, ptr %2, align 8, !tbaa !30
  %21 = getelementptr inbounds nuw %struct.prte_oob_tcp_listener_t, ptr %20, i32 0, i32 4
  %22 = load i32, ptr %21, align 4, !tbaa !41
  %23 = call i32 @shutdown(i32 noundef %22, i32 noundef 2) #11
  %24 = load ptr, ptr %2, align 8, !tbaa !30
  %25 = getelementptr inbounds nuw %struct.prte_oob_tcp_listener_t, ptr %24, i32 0, i32 4
  %26 = load i32, ptr %25, align 4, !tbaa !41
  %27 = call i32 @close(i32 noundef %26)
  br label %28

28:                                               ; preds = %19
  %29 = load ptr, ptr %2, align 8, !tbaa !30
  %30 = getelementptr inbounds nuw %struct.prte_oob_tcp_listener_t, ptr %29, i32 0, i32 4
  store i32 -1, ptr %30, align 4, !tbaa !41
  br label %31

31:                                               ; preds = %28, %11
  ret void
}