; Function Attrs: nounwind uwtable
define internal void @tcp_ev_des(ptr noundef %0) #0 {
  %2 = getelementptr inbounds nuw i8, ptr %0, i64 144
  %3 = load i8, ptr %2, align 8, !tbaa !66, !range !35, !noundef !36
  %4 = trunc nuw i8 %3 to i1
  br i1 %4, label %5, label %8

5:                                                ; preds = %1
  %6 = getelementptr inbounds nuw i8, ptr %0, i64 152
  %7 = tail call i32 @event_del(ptr noundef nonnull %6) #13
  br label %8

8:                                                ; preds = %5, %1
  store i8 0, ptr %2, align 8, !tbaa !66
  %9 = getelementptr inbounds nuw i8, ptr %0, i64 284
  %10 = load i32, ptr %9, align 4, !tbaa !46
  %11 = icmp sgt i32 %10, -1
  br i1 %11, label %12, label %16

12:                                               ; preds = %8
  %13 = tail call i32 @shutdown(i32 noundef %10, i32 noundef 2) #13
  %14 = load i32, ptr %9, align 4, !tbaa !46
  %15 = tail call i32 @close(i32 noundef %14) #13
  store i32 -1, ptr %9, align 4, !tbaa !46
  br label %16

16:                                               ; preds = %12, %8
  ret void
}